target datalayout = "e-m:e-p270:32:32-p271:32:32-p272:64:64-i64:64-i128:128-f80:128-n8:16:32:64-S128"
target triple = "x86_64-pc-linux-gnu"

@.str = private unnamed_addr constant [13 x i8] c"local-dialog\00", align 1
@.str.230 = private unnamed_addr constant [32 x i8] c"darkroom/ui/hide_header_buttons\00", align 1

; Function Attrs: nounwind uwtable
define internal void @preferences_response_callback_idm3109(ptr noundef %0, i32 noundef %1, ptr noundef %2) #0 {
  %4 = alloca ptr, align 8
  %5 = alloca i32, align 4
  %6 = alloca ptr, align 8
  %7 = alloca i32, align 4
  %8 = alloca i32, align 4
  %9 = alloca ptr, align 8
  %10 = alloca ptr, align 8
  store ptr %0, ptr %4, align 8, !tbaa !62
  store i32 %1, ptr %5, align 4, !tbaa !57
  store ptr %2, ptr %6, align 8, !tbaa !6
  call void @llvm.lifetime.start.p0(i64 4, ptr %7) #10
  %11 = load ptr, ptr %4, align 8, !tbaa !62
  %12 = call ptr @g_type_check_instance_cast(ptr noundef %11, i64 noundef 80)
  %13 = call ptr @g_object_get_data(ptr noundef %12, ptr noundef @.str)
  %14 = ptrtoint ptr %13 to i64
  %15 = trunc i64 %14 to i32
  store i32 %15, ptr %7, align 4, !tbaa !57
  %16 = load i32, ptr %7, align 4, !tbaa !57
  %17 = icmp ne i32 %16, 0
  br i1 %17, label %18, label %27

18:                                               ; preds = %3
  %19 = load i32, ptr %5, align 4, !tbaa !57
  %20 = icmp eq i32 %19, -1
  br i1 %20, label %21, label %22

21:                                               ; preds = %18
  store i32 1, ptr %8, align 4
  br label %51

22:                                               ; preds = %18
  %23 = load i32, ptr %5, align 4, !tbaa !57
  %24 = icmp eq i32 %23, -4
  br i1 %24, label %25, label %26

25:                                               ; preds = %22
  store i32 1, ptr %8, align 4
  br label %51

26:                                               ; preds = %22
  br label %32

27:                                               ; preds = %3
  %28 = load i32, ptr %5, align 4, !tbaa !57
  %29 = icmp ne i32 %28, -4
  br i1 %29, label %30, label %31

30:                                               ; preds = %27
  store i32 1, ptr %8, align 4
  br label %51

31:                                               ; preds = %27
  br label %32

32:                                               ; preds = %31, %26
  %33 = load ptr, ptr %4, align 8, !tbaa !62
  %34 = call i64 @gtk_widget_get_type() #11
  %35 = call ptr @g_type_check_instance_cast(ptr noundef %33, i64 noundef %34)
  call void @gtk_widget_set_can_focus(ptr noundef %35, i32 noundef 1)
  %36 = load ptr, ptr %4, align 8, !tbaa !62
  %37 = call i64 @gtk_widget_get_type() #11
  %38 = call ptr @g_type_check_instance_cast(ptr noundef %36, i64 noundef %37)
  call void @gtk_widget_grab_focus(ptr noundef %38)
  call void @llvm.lifetime.start.p0(i64 8, ptr %9) #10
  %39 = load ptr, ptr %6, align 8, !tbaa !6
  %40 = call ptr @dt_bauhaus_combobox_get_data(ptr noundef %39)
  store ptr %40, ptr %9, align 8, !tbaa !73
  call void @llvm.lifetime.start.p0(i64 8, ptr %10) #10
  %41 = load ptr, ptr %9, align 8, !tbaa !73
  %42 = load ptr, ptr %9, align 8, !tbaa !73
  %43 = call ptr @strchr(ptr noundef %42, i32 noundef 93) #12
  %44 = load ptr, ptr %9, align 8, !tbaa !73
  %45 = ptrtoint ptr %43 to i64
  %46 = ptrtoint ptr %44 to i64
  %47 = sub i64 %45, %46
  %48 = call noalias ptr @g_strndup(ptr noundef %41, i64 noundef %47)
  store ptr %48, ptr %10, align 8, !tbaa !73
  %49 = load ptr, ptr %10, align 8, !tbaa !73
  call void @dt_conf_set_string(ptr noundef @.str.230, ptr noundef %49)
  %50 = load ptr, ptr %10, align 8, !tbaa !73
  call void @g_free(ptr noundef %50)
  call void @llvm.lifetime.end.p0(i64 8, ptr %10) #10
  call void @llvm.lifetime.end.p0(i64 8, ptr %9) #10
  store i32 0, ptr %8, align 4
  br label %51

51:                                               ; preds = %32, %30, %25, %21
  call void @llvm.lifetime.end.p0(i64 4, ptr %7) #10
  %52 = load i32, ptr %8, align 4
  switch i32 %52, label %54 [
    i32 0, label %53
    i32 1, label %53
  ]

53:                                               ; preds = %51, %51
  ret void

54:                                               ; preds = %51
  unreachable
}